target datalayout = "e-m:e-p270:32:32-p271:32:32-p272:64:64-i64:64-i128:128-f80:128-n8:16:32:64-S128"
target triple = "x86_64-pc-linux-gnu"

; Function Attrs: null_pointer_is_valid sspstrong uwtable
define internal i32 @get_agentx_pdu_len(ptr noundef %0, ptr noundef %1, i32 noundef %2, ptr noundef %3) #0 {
  %5 = alloca ptr, align 8
  %6 = alloca ptr, align 8
  %7 = alloca i32, align 4
  %8 = alloca ptr, align 8
  %9 = alloca i8, align 1
  %10 = alloca i32, align 4
  store ptr %0, ptr %5, align 8
  store ptr %1, ptr %6, align 8
  store i32 %2, ptr %7, align 4
  store ptr %3, ptr %8, align 8
  call void @llvm.lifetime.start.p0(i64 1, ptr %9) #6
  call void @llvm.lifetime.start.p0(i64 4, ptr %10) #6
  %11 = load ptr, ptr %6, align 8
  %12 = load i32, ptr %7, align 4
  %13 = add i32 %12, 2
  %14 = call zeroext i8 @tvb_get_uint8(ptr noundef %11, i32 noundef %13)
  store i8 %14, ptr %9, align 1
  %15 = load i8, ptr %9, align 1
  %16 = zext i8 %15 to i32
  %17 = and i32 %16, 16
  %18 = icmp ne i32 %17, 0
  br i1 %18, label %19, label %24

19:                                               ; preds = %4
  %20 = load ptr, ptr %6, align 8
  %21 = load i32, ptr %7, align 4
  %22 = add i32 %21, 16
  %23 = call i32 @tvb_get_ntohl(ptr noundef %20, i32 noundef %22)
  br label %29

24:                                               ; preds = %4
  %25 = load ptr, ptr %6, align 8
  %26 = load i32, ptr %7, align 4
  %27 = add i32 %26, 16
  %28 = call i32 @tvb_get_letohl(ptr noundef %25, i32 noundef %27)
  br label %29

29:                                               ; preds = %24, %19
  %30 = phi i32 [ %23, %19 ], [ %28, %24 ]
  store i32 %30, ptr %10, align 4
  %31 = load i32, ptr %10, align 4
  %32 = icmp ugt i32 %31, 16777215
  br i1 %32, label %33, label %34

33:                                               ; preds = %29
  store i32 16777215, ptr %10, align 4
  br label %34

34:                                               ; preds = %33, %29
  %35 = load i32, ptr %10, align 4
  %36 = add i32 %35, 20
  call void @llvm.lifetime.end.p0(i64 4, ptr %10) #6
  call void @llvm.lifetime.end.p0(i64 1, ptr %9) #6
  ret i32 %36
}