; Function Attrs: null_pointer_is_valid sspstrong uwtable
define internal range(i32 20, 16777236) i32 @get_agentx_pdu_len(ptr readnone captures(none) %0, ptr noundef %1, i32 noundef %2, ptr readnone captures(none) %3) #0 {
  %5 = add i32 %2, 2
  %6 = tail call zeroext i8 @tvb_get_uint8(ptr noundef %1, i32 noundef %5)
  %7 = and i8 %6, 16
  %.not = icmp eq i8 %7, 0
  %8 = add i32 %2, 16
  br i1 %.not, label %11, label %9

9:                                                ; preds = %4
  %10 = tail call i32 @tvb_get_ntohl(ptr noundef %1, i32 noundef %8)
  br label %13

11:                                               ; preds = %4
  %12 = tail call i32 @tvb_get_letohl(ptr noundef %1, i32 noundef %8)
  br label %13

13:                                               ; preds = %11, %9
  %14 = phi i32 [ %10, %9 ], [ %12, %11 ]
  %spec.store.select = tail call i32 @llvm.umin.i32(i32 %14, i32 16777215)
  %15 = add nuw nsw i32 %spec.store.select, 20
  ret i32 %15
}